; ModuleID = '47/2551.c'
source_filename = "47/2551.c"
target datalayout = "e-m:e-p270:32:32-p271:32:32-p272:64:64-i64:64-f80:128-n8:16:32:64-S128"
target triple = "x86_64-pc-linux-gnu"

@.str = private unnamed_addr constant [3 x i8] c"%d\00", align 1
@.str.1 = private unnamed_addr constant [4 x i8] c"%d \00", align 1

; Function Attrs: noinline nounwind uwtable
define dso_local i32 @main() #0 {
  %1 = alloca i32, align 4
  %2 = alloca i32, align 4
  %3 = alloca i32, align 4
  %4 = alloca [100 x i32], align 16
  %5 = alloca i32, align 4
  %6 = alloca i32, align 4
  %7 = alloca i32, align 4
  %8 = alloca i32, align 4
  store i32 0, i32* %1, align 4
  %9 = call i32 (i8*, ...) @__isoc99_scanf(i8* getelementptr inbounds ([3 x i8], [3 x i8]* @.str, i64 0, i64 0), i32* %2)
  store i32 0, i32* %5, align 4
  br label %10

10:                                               ; preds = %19, %0
  %11 = load i32, i32* %5, align 4
  %12 = load i32, i32* %2, align 4
  %13 = icmp slt i32 %11, %12
  br i1 %13, label %14, label %22

14:                                               ; preds = %10
  %15 = load i32, i32* %5, align 4
  %16 = sext i32 %15 to i64
  %17 = getelementptr inbounds [100 x i32], [100 x i32]* %4, i64 0, i64 %16
  %18 = call i32 (i8*, ...) @__isoc99_scanf(i8* getelementptr inbounds ([3 x i8], [3 x i8]* @.str, i64 0, i64 0), i32* %17)
  br label %19

19:                                               ; preds = %14
  %20 = load i32, i32* %5, align 4
  %21 = add nsw i32 %20, 1
  store i32 %21, i32* %5, align 4
  br label %10

22:                                               ; preds = %10
  store i32 1, i32* %6, align 4
  br label %23

23:                                               ; preds = %56, %22
  %24 = load i32, i32* %6, align 4
  %25 = load i32, i32* %2, align 4
  %26 = icmp sle i32 %24, %25
  br i1 %26, label %27, label %59

27:                                               ; preds = %23
  store i32 0, i32* %7, align 4
  br label %28

28:                                               ; preds = %52, %27
  %29 = load i32, i32* %7, align 4
  %30 = load i32, i32* %2, align 4
  %31 = load i32, i32* %6, align 4
  %32 = sub nsw i32 %30, %31
  %33 = icmp slt i32 %29, %32
  br i1 %33, label %34, label %55

34:                                               ; preds = %28
  %35 = load i32, i32* %7, align 4
  %36 = sext i32 %35 to i64
  %37 = getelementptr inbounds [100 x i32], [100 x i32]* %4, i64 0, i64 %36
  %38 = load i32, i32* %37, align 4
  store i32 %38, i32* %3, align 4
  %39 = load i32, i32* %7, align 4
  %40 = add nsw i32 %39, 1
  %41 = sext i32 %40 to i64
  %42 = getelementptr inbounds [100 x i32], [100 x i32]* %4, i64 0, i64 %41
  %43 = load i32, i32* %42, align 4
  %44 = load i32, i32* %7, align 4
  %45 = sext i32 %44 to i64
  %46 = getelementptr inbounds [100 x i32], [100 x i32]* %4, i64 0, i64 %45
  store i32 %43, i32* %46, align 4
  %47 = load i32, i32* %3, align 4
  %48 = load i32, i32* %7, align 4
  %49 = add nsw i32 %48, 1
  %50 = sext i32 %49 to i64
  %51 = getelementptr inbounds [100 x i32], [100 x i32]* %4, i64 0, i64 %50
  store i32 %47, i32* %51, align 4
  br label %52

52:                                               ; preds = %34
  %53 = load i32, i32* %7, align 4
  %54 = add nsw i32 %53, 1
  store i32 %54, i32* %7, align 4
  br label %28

55:                                               ; preds = %28
  br label %56

56:                                               ; preds = %55
  %57 = load i32, i32* %6, align 4
  %58 = add nsw i32 %57, 1
  store i32 %58, i32* %6, align 4
  br label %23

59:                                               ; preds = %23
  store i32 0, i32* %8, align 4
  br label %60

60:                                               ; preds = %82, %59
  %61 = load i32, i32* %8, align 4
  %62 = load i32, i32* %2, align 4
  %63 = icmp slt i32 %61, %62
  br i1 %63, label %64, label %85

64:                                               ; preds = %60
  %65 = load i32, i32* %8, align 4
  %66 = load i32, i32* %2, align 4
  %67 = sub nsw i32 %66, 1
  %68 = icmp slt i32 %65, %67
  br i1 %68, label %69, label %75

69:                                               ; preds = %64
  %70 = load i32, i32* %8, align 4
  %71 = sext i32 %70 to i64
  %72 = getelementptr inbounds [100 x i32], [100 x i32]* %4, i64 0, i64 %71
  %73 = load i32, i32* %72, align 4
  %74 = call i32 (i8*, ...) @printf(i8* getelementptr inbounds ([4 x i8], [4 x i8]* @.str.1, i64 0, i64 0), i32 %73)
  br label %81

75:                                               ; preds = %64
  %76 = load i32, i32* %8, align 4
  %77 = sext i32 %76 to i64
  %78 = getelementptr inbounds [100 x i32], [100 x i32]* %4, i64 0, i64 %77
  %79 = load i32, i32* %78, align 4
  %80 = call i32 (i8*, ...) @printf(i8* getelementptr inbounds ([3 x i8], [3 x i8]* @.str, i64 0, i64 0), i32 %79)
  br label %81

81:                                               ; preds = %75, %69
  br label %82

82:                                               ; preds = %81
  %83 = load i32, i32* %8, align 4
  %84 = add nsw i32 %83, 1
  store i32 %84, i32* %8, align 4
  br label %60

85:                                               ; preds = %60
  ret i32 0
}

declare dso_local i32 @__isoc99_scanf(i8*, ...) #1

declare dso_local i32 @printf(i8*, ...) #1


!llvm.module.flags = !{!0}
!llvm.ident = !{!1}

!0 = !{i32 1, !"wchar_size", i32 4}
!1 = !{!"clang version 10.0.0-4ubuntu1 "}
